; Function Attrs: mustprogress uwtable
define internal noundef ptr @"_ZZN4pkpy6Struct9_registerEPNS_2VMEPNS_8PyObjectES4_EN3$_18__invokeES2_NS_8ArgsViewE"(ptr noundef nonnull %0, ptr nocapture readonly %1, ptr nocapture readnone %2) #3 align 2 personality ptr @__gxx_personality_v0 {
  %4 = alloca %"struct.pkpy::SStream", align 8
  %5 = alloca %"struct.pkpy::Str", align 8
  call void @llvm.lifetime.start.p0(i64 24, ptr nonnull %4)
  call void @llvm.lifetime.start.p0(i64 32, ptr nonnull %5)
  %6 = load ptr, ptr %1, align 8
  %7 = tail call i16 @_ZN4pkpy2VM28_find_type_in_cxx_typeid_mapINS_6StructEEENS_4TypeEv(ptr noundef nonnull align 8 dereferenceable(264913) %0)
  store i32 0, ptr %4, align 8
  %8 = getelementptr inbounds i8, ptr %4, i64 4
  store i32 64, ptr %8, align 4
  %9 = tail call noundef ptr @_ZN4pkpy12pool64_allocEm(i64 noundef 64) #24
  %10 = getelementptr inbounds i8, ptr %4, i64 8
  store ptr %9, ptr %10, align 8
  %11 = getelementptr inbounds i8, ptr %4, i64 16
  store i32 -1, ptr %11, align 8
  %12 = getelementptr inbounds i8, ptr %6, i64 56
  %13 = load i32, ptr %12, align 8
  %14 = icmp sgt i32 %13, 0
  br i1 %14, label %.lr.ph.i, label %._crit_edge.i

.lr.ph.i:                                         ; preds = %3
  %15 = getelementptr inbounds i8, ptr %6, i64 48
  br label %16

16:                                               ; preds = %20, %.lr.ph.i
  %indvars.iv.i = phi i64 [ 0, %.lr.ph.i ], [ %indvars.iv.next.i, %20 ]
  %17 = load ptr, ptr %15, align 8
  %18 = getelementptr inbounds i8, ptr %17, i64 %indvars.iv.i
  %19 = load i8, ptr %18, align 1
  invoke void @_ZN4pkpy7SStream9write_hexEhb(ptr noundef nonnull align 8 dereferenceable(20) %4, i8 noundef zeroext %19, i1 noundef zeroext false)
          to label %20 unwind label %.loopexit.i

20:                                               ; preds = %16
  %indvars.iv.next.i = add nuw nsw i64 %indvars.iv.i, 1
  %21 = load i32, ptr %12, align 8
  %22 = sext i32 %21 to i64
  %23 = icmp slt i64 %indvars.iv.next.i, %22
  br i1 %23, label %16, label %._crit_edge.i, !llvm.loop !18

.loopexit.i:                                      ; preds = %16
  %lpad.loopexit.i = landingpad { ptr, i32 }
          cleanup
  br label %31

.loopexit.split-lp.i:                             ; preds = %._crit_edge.i
  %lpad.loopexit.split-lp.i = landingpad { ptr, i32 }
          cleanup
  br label %31

._crit_edge.i:                                    ; preds = %20, %3
  invoke void @_ZN4pkpy7SStream3strEv(ptr dead_on_unwind nonnull writable sret(%"struct.pkpy::Str") align 8 %5, ptr noundef nonnull align 8 dereferenceable(20) %4)
          to label %24 unwind label %.loopexit.split-lp.i

24:                                               ; preds = %._crit_edge.i
  %25 = getelementptr inbounds i8, ptr %0, i64 16
  %26 = invoke noundef ptr @_ZN4pkpy11ManagedHeap5gcnewINS_3StrEJS2_EEEPNS_8PyObjectENS_4TypeEDpOT0_(ptr noundef nonnull align 8 dereferenceable(84) %25, i16 5, ptr noundef nonnull align 8 dereferenceable(32) %5)
          to label %_ZN4pkpy6py_varINS_3StrEEEPNS_8PyObjectEPNS_2VMEOT_.exit.i unwind label %29

_ZN4pkpy6py_varINS_3StrEEEPNS_8PyObjectEPNS_2VMEOT_.exit.i: ; preds = %24
  call void @_ZN4pkpy3StrD1Ev(ptr noundef nonnull align 8 dereferenceable(32) %5) #24
  %27 = load ptr, ptr %10, align 8
  %.not.i.i.i = icmp eq ptr %27, null
  br i1 %.not.i.i.i, label %"_ZZN4pkpy6Struct9_registerEPNS_2VMEPNS_8PyObjectES4_ENK3$_1clES2_NS_8ArgsViewE.exit", label %28

28:                                               ; preds = %_ZN4pkpy6py_varINS_3StrEEEPNS_8PyObjectEPNS_2VMEOT_.exit.i
  call void @_ZN4pkpy14pool64_deallocEPv(ptr noundef nonnull %27) #24
  br label %"_ZZN4pkpy6Struct9_registerEPNS_2VMEPNS_8PyObjectES4_ENK3$_1clES2_NS_8ArgsViewE.exit"

29:                                               ; preds = %24
  %30 = landingpad { ptr, i32 }
          cleanup
  call void @_ZN4pkpy3StrD1Ev(ptr noundef nonnull align 8 dereferenceable(32) %5) #24
  br label %31

31:                                               ; preds = %29, %.loopexit.split-lp.i, %.loopexit.i
  %.pn.i = phi { ptr, i32 } [ %30, %29 ], [ %lpad.loopexit.i, %.loopexit.i ], [ %lpad.loopexit.split-lp.i, %.loopexit.split-lp.i ]
  %32 = load ptr, ptr %10, align 8
  %.not.i.i11.i = icmp eq ptr %32, null
  br i1 %.not.i.i11.i, label %_ZN4pkpy7SStreamD2Ev.exit12.i, label %33

33:                                               ; preds = %31
  call void @_ZN4pkpy14pool64_deallocEPv(ptr noundef nonnull %32) #24
  br label %_ZN4pkpy7SStreamD2Ev.exit12.i

_ZN4pkpy7SStreamD2Ev.exit12.i:                    ; preds = %33, %31
  resume { ptr, i32 } %.pn.i

"_ZZN4pkpy6Struct9_registerEPNS_2VMEPNS_8PyObjectES4_ENK3$_1clES2_NS_8ArgsViewE.exit": ; preds = %_ZN4pkpy6py_varINS_3StrEEEPNS_8PyObjectEPNS_2VMEOT_.exit.i, %28
  call void @llvm.lifetime.end.p0(i64 24, ptr nonnull %4)
  call void @llvm.lifetime.end.p0(i64 32, ptr nonnull %5)
  ret ptr %26
}